; Function Attrs: nounwind sspstrong uwtable
define dso_local void @tcg_gen_nor_vec(i32 noundef %vece, ptr noundef %r, ptr noundef %a, ptr noundef %b) local_unnamed_addr #0 {
entry:
  %0 = load i32, ptr @cpuinfo, align 4
  %1 = and i32 %0, 6144
  %or.cond.not = icmp eq i32 %1, 6144
  %2 = tail call align 8 ptr @llvm.threadlocal.address.p0(ptr align 8 @tcg_ctx)
  %3 = load ptr, ptr %2, align 8
  %4 = ptrtoint ptr %r to i64
  %add.ptr.i.i.i = getelementptr i8, ptr %3, i64 %4
  %5 = ptrtoint ptr %a to i64
  %add.ptr.i.i6.i = getelementptr i8, ptr %3, i64 %5
  %6 = ptrtoint ptr %b to i64
  %add.ptr.i.i7.i = getelementptr i8, ptr %3, i64 %6
  %bf.load.i = load i64, ptr %add.ptr.i.i.i, align 8
  %7 = trunc i64 %bf.load.i to i32
  %8 = lshr i32 %7, 16
  %bf.cast.i = and i32 %8, 255
  %bf.load3.i = load i64, ptr %add.ptr.i.i6.i, align 8
  %9 = trunc i64 %bf.load3.i to i32
  %10 = lshr i32 %9, 16
  %bf.cast6.i = and i32 %10, 255
  %cmp.i = icmp samesign uge i32 %bf.cast6.i, %bf.cast.i
  tail call void @llvm.assume(i1 %cmp.i)
  %bf.load8.i = load i64, ptr %add.ptr.i.i7.i, align 8
  %11 = trunc i64 %bf.load8.i to i32
  %12 = lshr i32 %11, 16
  %bf.cast11.i = and i32 %12, 255
  %cmp12.i = icmp samesign uge i32 %bf.cast11.i, %bf.cast.i
  tail call void @llvm.assume(i1 %cmp12.i)
  %13 = ptrtoint ptr %add.ptr.i.i.i to i64
  %14 = ptrtoint ptr %add.ptr.i.i6.i to i64
  %15 = ptrtoint ptr %add.ptr.i.i7.i to i64
  %sub.i.i = shl nuw nsw i32 %bf.cast.i, 16
  %bf.value.i.i = add nuw nsw i32 %sub.i.i, 16580608
  %bf.value.masked.i.i = and i32 %bf.value.i.i, 16711680
  br i1 %or.cond.not, label %if.then, label %if.else

if.then:                                          ; preds = %entry
  %call.i.i = tail call ptr @tcg_emit_op(i32 noundef 174, i32 noundef 3) #5
  %bf.load.i.i = load i32, ptr %call.i.i, align 8
  %bf.clear.i.i = and i32 %bf.load.i.i, 65535
  %bf.clear4.i.i = or disjoint i32 %bf.clear.i.i, %bf.value.masked.i.i
  store i32 %bf.clear4.i.i, ptr %call.i.i, align 8
  %args.i.i = getelementptr inbounds nuw i8, ptr %call.i.i, i64 32
  store i64 %13, ptr %args.i.i, align 8
  %arrayidx7.i.i = getelementptr i8, ptr %call.i.i, i64 40
  store i64 %14, ptr %arrayidx7.i.i, align 8
  %arrayidx9.i.i = getelementptr i8, ptr %call.i.i, i64 48
  store i64 %15, ptr %arrayidx9.i.i, align 8
  br label %if.end

if.else:                                          ; preds = %entry
  %call.i.i.i = tail call ptr @tcg_emit_op(i32 noundef 169, i32 noundef 3) #5
  %bf.load.i.i.i = load i32, ptr %call.i.i.i, align 8
  %bf.clear.i.i.i = and i32 %bf.load.i.i.i, 65535
  %bf.clear4.i.i.i = or disjoint i32 %bf.clear.i.i.i, %bf.value.masked.i.i
  store i32 %bf.clear4.i.i.i, ptr %call.i.i.i, align 8
  %args.i.i.i = getelementptr inbounds nuw i8, ptr %call.i.i.i, i64 32
  store i64 %13, ptr %args.i.i.i, align 8
  %arrayidx7.i.i.i = getelementptr i8, ptr %call.i.i.i, i64 40
  store i64 %14, ptr %arrayidx7.i.i.i, align 8
  %arrayidx9.i.i.i = getelementptr i8, ptr %call.i.i.i, i64 48
  store i64 %15, ptr %arrayidx9.i.i.i, align 8
  %16 = load i32, ptr @cpuinfo, align 4
  %17 = and i32 %16, 6144
  %or.cond.not.i = icmp eq i32 %17, 6144
  br i1 %or.cond.not.i, label %if.then.i, label %if.else.i

if.then.i:                                        ; preds = %if.else
  %18 = load ptr, ptr %2, align 8
  %add.ptr.i.i.i.i7 = getelementptr i8, ptr %18, i64 %4
  %bf.load.i.i8 = load i64, ptr %add.ptr.i.i.i.i7, align 8
  %19 = trunc i64 %bf.load.i.i8 to i32
  %20 = ptrtoint ptr %add.ptr.i.i.i.i7 to i64
  %call.i.i.i11 = tail call ptr @tcg_emit_op(i32 noundef 176, i32 noundef 2) #5
  %bf.load.i.i.i12 = load i32, ptr %call.i.i.i11, align 8
  %bf.value.i.i.i14 = add i32 %19, 16580608
  %bf.clear.i.i.i15 = and i32 %bf.load.i.i.i12, 65535
  %bf.value.masked.i.i.i16 = and i32 %bf.value.i.i.i14, 16711680
  %bf.clear4.i.i.i17 = or disjoint i32 %bf.value.masked.i.i.i16, %bf.clear.i.i.i15
  store i32 %bf.clear4.i.i.i17, ptr %call.i.i.i11, align 8
  %args.i.i.i18 = getelementptr inbounds nuw i8, ptr %call.i.i.i11, i64 32
  store i64 %20, ptr %args.i.i.i18, align 8
  %arrayidx7.i.i.i19 = getelementptr i8, ptr %call.i.i.i11, i64 40
  store i64 %20, ptr %arrayidx7.i.i.i19, align 8
  br label %if.end

if.else.i:                                        ; preds = %if.else
  %call.i = tail call ptr @tcg_constant_vec_matching(ptr noundef %r, i32 noundef 0, i64 noundef -1) #5
  %21 = load ptr, ptr %2, align 8
  %add.ptr.i.i.i.i.i = getelementptr i8, ptr %21, i64 %4
  %22 = ptrtoint ptr %call.i to i64
  %add.ptr.i.i7.i.i.i = getelementptr i8, ptr %21, i64 %22
  %bf.load.i.i4.i = load i64, ptr %add.ptr.i.i.i.i.i, align 8
  %23 = trunc i64 %bf.load.i.i4.i to i32
  %24 = lshr i32 %23, 16
  %bf.cast.i.i.i = and i32 %24, 255
  %bf.load8.i.i.i = load i64, ptr %add.ptr.i.i7.i.i.i, align 8
  %25 = trunc i64 %bf.load8.i.i.i to i32
  %26 = lshr i32 %25, 16
  %bf.cast11.i.i.i = and i32 %26, 255
  %cmp12.i.i.i = icmp samesign uge i32 %bf.cast11.i.i.i, %bf.cast.i.i.i
  tail call void @llvm.assume(i1 %cmp12.i.i.i)
  %27 = ptrtoint ptr %add.ptr.i.i.i.i.i to i64
  %28 = ptrtoint ptr %add.ptr.i.i7.i.i.i to i64
  %call.i.i.i.i = tail call ptr @tcg_emit_op(i32 noundef 170, i32 noundef 3) #5
  %bf.load.i.i.i.i = load i32, ptr %call.i.i.i.i, align 8
  %sub.i.i.i.i = shl nuw nsw i32 %bf.cast.i.i.i, 16
  %bf.value.i.i.i.i = add nuw nsw i32 %sub.i.i.i.i, 16580608
  %bf.clear.i.i.i.i = and i32 %bf.load.i.i.i.i, 65535
  %bf.value.masked.i.i.i.i = and i32 %bf.value.i.i.i.i, 16711680
  %bf.clear4.i.i.i.i = or disjoint i32 %bf.value.masked.i.i.i.i, %bf.clear.i.i.i.i
  store i32 %bf.clear4.i.i.i.i, ptr %call.i.i.i.i, align 8
  %args.i.i.i.i = getelementptr inbounds nuw i8, ptr %call.i.i.i.i, i64 32
  store i64 %27, ptr %args.i.i.i.i, align 8
  %arrayidx7.i.i.i.i = getelementptr i8, ptr %call.i.i.i.i, i64 40
  store i64 %27, ptr %arrayidx7.i.i.i.i, align 8
  %arrayidx9.i.i.i.i = getelementptr i8, ptr %call.i.i.i.i, i64 48
  store i64 %28, ptr %arrayidx9.i.i.i.i, align 8
  br label %if.end

if.end:                                           ; preds = %if.else.i, %if.then.i, %if.then
  ret void
}